; Function Attrs: mustprogress uwtable
define dso_local noundef ptr @_ZN4Luau15ReplaceGenerics5cleanEPKNS_11TypePackVarE(ptr noundef nonnull readonly align 8 captures(none) dereferenceable(544) %0, ptr readnone captures(none) %1) unnamed_addr #2 align 2 personality ptr @__gxx_personality_v0 {
  %3 = alloca %"struct.Luau::TypePackVar", align 8
  %4 = alloca %"struct.Luau::TypePackVar", align 8
  %5 = alloca %"class.Luau::Variant.110", align 8
  %6 = alloca %"struct.Luau::FreeTypePack", align 8
  call void @llvm.lifetime.start.p0(i64 88, ptr nonnull %4) #18
  call void @llvm.lifetime.start.p0(i64 72, ptr nonnull %5) #18
  call void @llvm.lifetime.start.p0(i64 24, ptr nonnull %6) #18
  %7 = getelementptr inbounds nuw i8, ptr %0, i64 488
  %8 = load ptr, ptr %7, align 8, !tbaa !120
  %9 = getelementptr inbounds nuw i8, ptr %0, i64 480
  %.sroa.0.0.copyload = load i64, ptr %9, align 8
  call void @_ZN4Luau12FreeTypePackC1EPNS_5ScopeENS_9TypeLevelE(ptr noundef nonnull align 8 dereferenceable(24) %6, ptr noundef %8, i64 %.sroa.0.0.copyload)
  store i32 2, ptr %5, align 8, !tbaa !176
  %10 = getelementptr inbounds nuw i8, ptr %5, i64 8
  call void @llvm.memcpy.p0.p0.i64(ptr noundef nonnull align 8 dereferenceable(24) %10, ptr noundef nonnull align 8 dereferenceable(24) %6, i64 24, i1 false), !tbaa.struct !185
  invoke void @_ZN4Luau11TypePackVarC1EONS_7VariantIJNS_9Unifiable5BoundIPKS0_EENS2_5ErrorIS5_EENS_12FreeTypePackENS_15GenericTypePackENS_8TypePackENS_16VariadicTypePackENS_15BlockedTypePackENS_28TypeFunctionInstanceTypePackEEEE(ptr noundef nonnull align 8 dereferenceable(88) %4, ptr noundef nonnull align 8 dereferenceable(72) %5)
          to label %11 unwind label %55

11:                                               ; preds = %2
  call void @llvm.lifetime.start.p0(i64 88, ptr nonnull %3)
  %12 = getelementptr inbounds nuw i8, ptr %0, i64 224
  %13 = load ptr, ptr %12, align 8, !tbaa !119
  %14 = load i32, ptr %4, align 8, !tbaa !176
  store i32 %14, ptr %3, align 8, !tbaa !176
  %15 = sext i32 %14 to i64
  %16 = getelementptr inbounds [8 x ptr], ptr @_ZZN4Luau7VariantIJNS_9Unifiable5BoundIPKNS_11TypePackVarEEENS1_5ErrorIS5_EENS_12FreeTypePackENS_15GenericTypePackENS_8TypePackENS_16VariadicTypePackENS_15BlockedTypePackENS_28TypeFunctionInstanceTypePackEEEC1ERKSF_E5table, i64 0, i64 %15
  %17 = load ptr, ptr %16, align 8, !tbaa !187
  %18 = getelementptr inbounds nuw i8, ptr %3, i64 8
  %19 = getelementptr inbounds nuw i8, ptr %4, i64 8
  invoke void %17(ptr noundef nonnull %18, ptr noundef nonnull %19)
          to label %.noexc unwind label %57

.noexc:                                           ; preds = %11
  %20 = getelementptr inbounds nuw i8, ptr %3, i64 72
  %21 = getelementptr inbounds nuw i8, ptr %4, i64 72
  call void @llvm.memcpy.p0.p0.i64(ptr noundef nonnull align 8 dereferenceable(16) %20, ptr noundef nonnull align 8 dereferenceable(16) %21, i64 16, i1 false)
  %22 = invoke noundef ptr @_ZN4Luau9TypeArena11addTypePackENS_11TypePackVarE(ptr noundef nonnull align 8 dereferenceable(88) %13, ptr noundef nonnull %3)
          to label %23 unwind label %31

23:                                               ; preds = %.noexc
  %24 = load i32, ptr %3, align 8, !tbaa !176
  %25 = sext i32 %24 to i64
  %26 = getelementptr inbounds [8 x ptr], ptr @_ZN4Luau7VariantIJNS_9Unifiable5BoundIPKNS_11TypePackVarEEENS1_5ErrorIS5_EENS_12FreeTypePackENS_15GenericTypePackENS_8TypePackENS_16VariadicTypePackENS_15BlockedTypePackENS_28TypeFunctionInstanceTypePackEEE9tableDtorE, i64 0, i64 %25
  %27 = load ptr, ptr %26, align 8, !tbaa !187
  invoke void %27(ptr noundef nonnull %18)
          to label %40 unwind label %28

28:                                               ; preds = %23
  %29 = landingpad { ptr, i32 }
          catch ptr null
  %30 = extractvalue { ptr, i32 } %29, 0
  call void @__clang_call_terminate(ptr %30) #22
  unreachable

31:                                               ; preds = %.noexc
  %32 = landingpad { ptr, i32 }
          cleanup
  %33 = load i32, ptr %3, align 8, !tbaa !176
  %34 = sext i32 %33 to i64
  %35 = getelementptr inbounds [8 x ptr], ptr @_ZN4Luau7VariantIJNS_9Unifiable5BoundIPKNS_11TypePackVarEEENS1_5ErrorIS5_EENS_12FreeTypePackENS_15GenericTypePackENS_8TypePackENS_16VariadicTypePackENS_15BlockedTypePackENS_28TypeFunctionInstanceTypePackEEE9tableDtorE, i64 0, i64 %34
  %36 = load ptr, ptr %35, align 8, !tbaa !187
  invoke void %36(ptr noundef nonnull %18)
          to label %.body unwind label %37

37:                                               ; preds = %31
  %38 = landingpad { ptr, i32 }
          catch ptr null
  %39 = extractvalue { ptr, i32 } %38, 0
  call void @__clang_call_terminate(ptr %39) #22
  unreachable

40:                                               ; preds = %23
  call void @llvm.lifetime.end.p0(i64 88, ptr nonnull %3)
  %41 = load i32, ptr %4, align 8, !tbaa !176
  %42 = sext i32 %41 to i64
  %43 = getelementptr inbounds [8 x ptr], ptr @_ZN4Luau7VariantIJNS_9Unifiable5BoundIPKNS_11TypePackVarEEENS1_5ErrorIS5_EENS_12FreeTypePackENS_15GenericTypePackENS_8TypePackENS_16VariadicTypePackENS_15BlockedTypePackENS_28TypeFunctionInstanceTypePackEEE9tableDtorE, i64 0, i64 %42
  %44 = load ptr, ptr %43, align 8, !tbaa !187
  invoke void %44(ptr noundef nonnull %19)
          to label %_ZN4Luau11TypePackVarD2Ev.exit unwind label %45

45:                                               ; preds = %40
  %46 = landingpad { ptr, i32 }
          catch ptr null
  %47 = extractvalue { ptr, i32 } %46, 0
  call void @__clang_call_terminate(ptr %47) #22
  unreachable

_ZN4Luau11TypePackVarD2Ev.exit:                   ; preds = %40
  %48 = load i32, ptr %5, align 8, !tbaa !176
  %49 = sext i32 %48 to i64
  %50 = getelementptr inbounds [8 x ptr], ptr @_ZN4Luau7VariantIJNS_9Unifiable5BoundIPKNS_11TypePackVarEEENS1_5ErrorIS5_EENS_12FreeTypePackENS_15GenericTypePackENS_8TypePackENS_16VariadicTypePackENS_15BlockedTypePackENS_28TypeFunctionInstanceTypePackEEE9tableDtorE, i64 0, i64 %49
  %51 = load ptr, ptr %50, align 8, !tbaa !187
  invoke void %51(ptr noundef nonnull %10)
          to label %_ZN4Luau7VariantIJNS_9Unifiable5BoundIPKNS_11TypePackVarEEENS1_5ErrorIS5_EENS_12FreeTypePackENS_15GenericTypePackENS_8TypePackENS_16VariadicTypePackENS_15BlockedTypePackENS_28TypeFunctionInstanceTypePackEEED2Ev.exit unwind label %52

52:                                               ; preds = %_ZN4Luau11TypePackVarD2Ev.exit
  %53 = landingpad { ptr, i32 }
          catch ptr null
  %54 = extractvalue { ptr, i32 } %53, 0
  call void @__clang_call_terminate(ptr %54) #22
  unreachable

_ZN4Luau7VariantIJNS_9Unifiable5BoundIPKNS_11TypePackVarEEENS1_5ErrorIS5_EENS_12FreeTypePackENS_15GenericTypePackENS_8TypePackENS_16VariadicTypePackENS_15BlockedTypePackENS_28TypeFunctionInstanceTypePackEEED2Ev.exit: ; preds = %_ZN4Luau11TypePackVarD2Ev.exit
  call void @llvm.lifetime.end.p0(i64 24, ptr nonnull %6) #18
  call void @llvm.lifetime.end.p0(i64 72, ptr nonnull %5) #18
  call void @llvm.lifetime.end.p0(i64 88, ptr nonnull %4) #18
  ret ptr %22

55:                                               ; preds = %2
  %56 = landingpad { ptr, i32 }
          cleanup
  br label %_ZN4Luau11TypePackVarD2Ev.exit4

57:                                               ; preds = %11
  %58 = landingpad { ptr, i32 }
          cleanup
  br label %.body

.body:                                            ; preds = %31, %57
  %eh.lpad-body = phi { ptr, i32 } [ %58, %57 ], [ %32, %31 ]
  %59 = load i32, ptr %4, align 8, !tbaa !176
  %60 = sext i32 %59 to i64
  %61 = getelementptr inbounds [8 x ptr], ptr @_ZN4Luau7VariantIJNS_9Unifiable5BoundIPKNS_11TypePackVarEEENS1_5ErrorIS5_EENS_12FreeTypePackENS_15GenericTypePackENS_8TypePackENS_16VariadicTypePackENS_15BlockedTypePackENS_28TypeFunctionInstanceTypePackEEE9tableDtorE, i64 0, i64 %60
  %62 = load ptr, ptr %61, align 8, !tbaa !187
  invoke void %62(ptr noundef nonnull %19)
          to label %_ZN4Luau11TypePackVarD2Ev.exit4 unwind label %63

63:                                               ; preds = %.body
  %64 = landingpad { ptr, i32 }
          catch ptr null
  %65 = extractvalue { ptr, i32 } %64, 0
  call void @__clang_call_terminate(ptr %65) #22
  unreachable

_ZN4Luau11TypePackVarD2Ev.exit4:                  ; preds = %.body, %55
  %.pn = phi { ptr, i32 } [ %56, %55 ], [ %eh.lpad-body, %.body ]
  %66 = load i32, ptr %5, align 8, !tbaa !176
  %67 = sext i32 %66 to i64
  %68 = getelementptr inbounds [8 x ptr], ptr @_ZN4Luau7VariantIJNS_9Unifiable5BoundIPKNS_11TypePackVarEEENS1_5ErrorIS5_EENS_12FreeTypePackENS_15GenericTypePackENS_8TypePackENS_16VariadicTypePackENS_15BlockedTypePackENS_28TypeFunctionInstanceTypePackEEE9tableDtorE, i64 0, i64 %67
  %69 = load ptr, ptr %68, align 8, !tbaa !187
  invoke void %69(ptr noundef nonnull %10)
          to label %_ZN4Luau7VariantIJNS_9Unifiable5BoundIPKNS_11TypePackVarEEENS1_5ErrorIS5_EENS_12FreeTypePackENS_15GenericTypePackENS_8TypePackENS_16VariadicTypePackENS_15BlockedTypePackENS_28TypeFunctionInstanceTypePackEEED2Ev.exit5 unwind label %70

70:                                               ; preds = %_ZN4Luau11TypePackVarD2Ev.exit4
  %71 = landingpad { ptr, i32 }
          catch ptr null
  %72 = extractvalue { ptr, i32 } %71, 0
  call void @__clang_call_terminate(ptr %72) #22
  unreachable

_ZN4Luau7VariantIJNS_9Unifiable5BoundIPKNS_11TypePackVarEEENS1_5ErrorIS5_EENS_12FreeTypePackENS_15GenericTypePackENS_8TypePackENS_16VariadicTypePackENS_15BlockedTypePackENS_28TypeFunctionInstanceTypePackEEED2Ev.exit5: ; preds = %_ZN4Luau11TypePackVarD2Ev.exit4
  call void @llvm.lifetime.end.p0(i64 24, ptr nonnull %6) #18
  call void @llvm.lifetime.end.p0(i64 72, ptr nonnull %5) #18
  call void @llvm.lifetime.end.p0(i64 88, ptr nonnull %4) #18
  resume { ptr, i32 } %.pn
}